target datalayout = "e-m:e-p270:32:32-p271:32:32-p272:64:64-i64:64-i128:128-f80:128-n8:16:32:64-S128"
target triple = "x86_64-unknown-linux-gnu"

%"class.absl::lts_20230802::log_internal::NullStream" = type { i8 }
%"struct.google::protobuf::internal::ArenaAlign" = type { i64 }

; Function Attrs: mustprogress nounwind uwtable
define linkonce_odr hidden noundef ptr @_ZNK6google8protobuf8internal10ArenaAlign4CeilIvEEPT_S5_(ptr noundef nonnull align 8 dereferenceable(8) %this, ptr noundef %ptr) #5 comdat align 2 {
entry:
  %this.addr = alloca ptr, align 8
  %ptr.addr = alloca ptr, align 8
  %intptr = alloca i64, align 8
  store ptr %this, ptr %this.addr, align 8
  store ptr %ptr, ptr %ptr.addr, align 8
  %this1 = load ptr, ptr %this.addr, align 8
  %0 = load ptr, ptr %ptr.addr, align 8
  %1 = ptrtoint ptr %0 to i64
  store i64 %1, ptr %intptr, align 8
  %2 = load i64, ptr %intptr, align 8
  %align = getelementptr inbounds %"struct.google::protobuf::internal::ArenaAlign", ptr %this1, i32 0, i32 0
  %3 = load i64, ptr %align, align 8
  %add = add i64 %2, %3
  %sub = sub i64 %add, 1
  %align2 = getelementptr inbounds %"struct.google::protobuf::internal::ArenaAlign", ptr %this1, i32 0, i32 0
  %4 = load i64, ptr %align2, align 8
  %sub3 = sub i64 %4, 1
  %not = xor i64 %sub3, -1
  %and = and i64 %sub, %not
  %5 = inttoptr i64 %and to ptr
  ret ptr %5
}

; Function Attrs: mustprogress nounwind uwtable
define linkonce_odr hidden noundef i64 @_ZNK6google8protobuf8internal10ArenaAlign6PaddedEm(ptr noundef nonnull align 8 dereferenceable(8) %this, i64 noundef %n) #5 comdat align 2 {
entry:
  %this.addr = alloca ptr, align 8
  %n.addr = alloca i64, align 8
  store ptr %this, ptr %this.addr, align 8
  store i64 %n, ptr %n.addr, align 8
  %this1 = load ptr, ptr %this.addr, align 8
  %0 = load i64, ptr %n.addr, align 8
  %align = getelementptr inbounds %"struct.google::protobuf::internal::ArenaAlign", ptr %this1, i32 0, i32 0
  %1 = load i64, ptr %align, align 8
  %add = add i64 %0, %1
  %sub = sub i64 %add, 8
  ret i64 %sub
}

; Function Attrs: mustprogress nounwind uwtable
define linkonce_odr hidden i64 @_ZN6google8protobuf8internal12ArenaAlignAsEm(i64 noundef %align) #5 comdat {
entry:
  %retval = alloca %"struct.google::protobuf::internal::ArenaAlign", align 8
  %align.addr = alloca i64, align 8
  %ref.tmp = alloca %"class.absl::lts_20230802::log_internal::NullStream", align 1
  store i64 %align, ptr %align.addr, align 8
  br label %while.cond

while.cond:                                       ; preds = %while.body, %entry
  br i1 false, label %while.body, label %while.end

while.body:                                       ; preds = %while.cond
  %call = call noundef nonnull align 1 dereferenceable(1) ptr @_ZN4absl12lts_2023080212log_internal10NullStream14InternalStreamEv(ptr noundef nonnull align 1 dereferenceable(1) %ref.tmp)
  br label %while.cond, !llvm.loop !8

while.end:                                        ; preds = %while.cond
  %align1 = getelementptr inbounds %"struct.google::protobuf::internal::ArenaAlign", ptr %retval, i32 0, i32 0
  %0 = load i64, ptr %align.addr, align 8
  store i64 %0, ptr %align1, align 8
  %coerce.dive = getelementptr inbounds %"struct.google::protobuf::internal::ArenaAlign", ptr %retval, i32 0, i32 0
  %1 = load i64, ptr %coerce.dive, align 8
  ret i64 %1
}

; Function Attrs: mustprogress uwtable
define linkonce_odr hidden noundef ptr @_ZN6google8protobuf5Arena15AllocateAlignedEmm(ptr noundef nonnull align 8 dereferenceable(144) %this, i64 noundef %size, i64 noundef %align) #4 comdat align 2 {
entry:
  %n.addr.i = alloca i64, align 8
  %retval = alloca ptr, align 8
  %this.addr = alloca ptr, align 8
  %size.addr = alloca i64, align 8
  %align.addr = alloca i64, align 8
  %align_as = alloca %"struct.google::protobuf::internal::ArenaAlign", align 8
  store ptr %this, ptr %this.addr, align 8
  store i64 %size, ptr %size.addr, align 8
  store i64 %align, ptr %align.addr, align 8
  %this1 = load ptr, ptr %this.addr, align 8
  %0 = load i64, ptr %align.addr, align 8
  %cmp = icmp ule i64 %0, 8
  br i1 %cmp, label %if.then, label %if.else

if.then:                                          ; preds = %entry
  %1 = load i64, ptr %size.addr, align 8
  store i64 %1, ptr %n.addr.i, align 8
  %2 = load i64, ptr %n.addr.i, align 8
  %add.i = add i64 %2, 8
  %sub.i = sub i64 %add.i, 1
  %and.i = and i64 %sub.i, -8
  %call2 = call noundef ptr @_ZN6google8protobuf5Arena8AllocateEm(ptr noundef nonnull align 8 dereferenceable(144) %this1, i64 noundef %and.i)
  store ptr %call2, ptr %retval, align 8
  br label %return

if.else:                                          ; preds = %entry
  %3 = load i64, ptr %align.addr, align 8
  %call3 = call i64 @_ZN6google8protobuf8internal12ArenaAlignAsEm(i64 noundef %3)
  %coerce.dive = getelementptr inbounds %"struct.google::protobuf::internal::ArenaAlign", ptr %align_as, i32 0, i32 0
  store i64 %call3, ptr %coerce.dive, align 8
  %4 = load i64, ptr %size.addr, align 8
  %call4 = call noundef i64 @_ZNK6google8protobuf8internal10ArenaAlign6PaddedEm(ptr noundef nonnull align 8 dereferenceable(8) %align_as, i64 noundef %4)
  %call5 = call noundef ptr @_ZN6google8protobuf5Arena8AllocateEm(ptr noundef nonnull align 8 dereferenceable(144) %this1, i64 noundef %call4)
  %call6 = call noundef ptr @_ZNK6google8protobuf8internal10ArenaAlign4CeilIvEEPT_S5_(ptr noundef nonnull align 8 dereferenceable(8) %align_as, ptr noundef %call5)
  store ptr %call6, ptr %retval, align 8
  br label %return

return:                                           ; preds = %if.else, %if.then
  %5 = load ptr, ptr %retval, align 8
  ret ptr %5
}

; Function Attrs: mustprogress nounwind uwtable
define linkonce_odr hidden noundef nonnull align 1 dereferenceable(1) ptr @_ZN4absl12lts_2023080212log_internal10NullStream14InternalStreamEv(ptr noundef nonnull align 1 dereferenceable(1) %this) #5 comdat align 2 {
entry:
  %this.addr = alloca ptr, align 8
  store ptr %this, ptr %this.addr, align 8
  %this1 = load ptr, ptr %this.addr, align 8
  ret ptr %this1
}

; Function Attrs: mustprogress uwtable
define hidden noundef ptr @_ZN6google8protobuf8internal25CreateSplitMessageGenericEPNS0_5ArenaEPKvmS5_S5_(ptr noundef %arena, ptr noundef %default_split, i64 noundef %size, ptr noundef %message, ptr noundef %default_message) #4 {
entry:
  %arena.addr = alloca ptr, align 8
  %default_split.addr = alloca ptr, align 8
  %size.addr = alloca i64, align 8
  %message.addr = alloca ptr, align 8
  %default_message.addr = alloca ptr, align 8
  %ref.tmp = alloca %"class.absl::lts_20230802::log_internal::NullStream", align 1
  %split = alloca ptr, align 8
  store ptr %arena, ptr %arena.addr, align 8
  store ptr %default_split, ptr %default_split.addr, align 8
  store i64 %size, ptr %size.addr, align 8
  store ptr %message, ptr %message.addr, align 8
  store ptr %default_message, ptr %default_message.addr, align 8
  br label %while.cond

while.cond:                                       ; preds = %while.body, %entry
  br i1 false, label %while.body, label %while.end

while.body:                                       ; preds = %while.cond
  %call = call noundef nonnull align 1 dereferenceable(1) ptr @_ZN4absl12lts_2023080212log_internal10NullStream14InternalStreamEv(ptr noundef nonnull align 1 dereferenceable(1) %ref.tmp)
  br label %while.cond, !llvm.loop !4

while.end:                                        ; preds = %while.cond
  %0 = load ptr, ptr %arena.addr, align 8
  %cmp = icmp eq ptr %0, null
  br i1 %cmp, label %cond.true, label %cond.false

cond.true:                                        ; preds = %while.end
  %1 = load i64, ptr %size.addr, align 8
  %call1 = call noalias noundef nonnull ptr @_Znwm(i64 noundef %1) #24
  br label %cond.end

cond.false:                                       ; preds = %while.end
  %2 = load ptr, ptr %arena.addr, align 8
  %3 = load i64, ptr %size.addr, align 8
  %call2 = call noundef ptr @_ZN6google8protobuf5Arena15AllocateAlignedEmm(ptr noundef nonnull align 8 dereferenceable(144) %2, i64 noundef %3, i64 noundef 8)
  br label %cond.end

cond.end:                                         ; preds = %cond.false, %cond.true
  %cond = phi ptr [ %call1, %cond.true ], [ %call2, %cond.false ]
  store ptr %cond, ptr %split, align 8
  %4 = load ptr, ptr %split, align 8
  %5 = load ptr, ptr %default_split.addr, align 8
  %6 = load i64, ptr %size.addr, align 8
  call void @llvm.memcpy.p0.p0.i64(ptr align 1 %4, ptr align 1 %5, i64 %6, i1 false)
  %7 = load ptr, ptr %split, align 8
  ret ptr %7
}