; Function Attrs: mustprogress uwtable
define hidden noundef ptr @_ZN6google8protobuf8internal25CreateSplitMessageGenericEPNS0_5ArenaEPKvmS5_S5_(ptr noundef %arena, ptr nocapture noundef readonly %default_split, i64 noundef %size, ptr nocapture noundef readnone %message, ptr nocapture noundef readnone %default_message) local_unnamed_addr #3 {
entry:
  %cmp = icmp eq ptr %arena, null
  br i1 %cmp, label %cond.true, label %cond.false

cond.true:                                        ; preds = %entry
  %call1 = tail call noalias noundef nonnull ptr @_Znwm(i64 noundef %size) #31
  br label %cond.end

cond.false:                                       ; preds = %entry
  %sub.i.i = add i64 %size, 7
  %and.i.i = and i64 %sub.i.i, -8
  %call2.i = tail call noundef ptr @_ZN6google8protobuf5Arena8AllocateEm(ptr noundef nonnull align 8 dereferenceable(144) %arena, i64 noundef %and.i.i)
  br label %cond.end

cond.end:                                         ; preds = %cond.false, %cond.true
  %cond = phi ptr [ %call1, %cond.true ], [ %call2.i, %cond.false ]
  tail call void @llvm.memcpy.p0.p0.i64(ptr align 1 %cond, ptr align 1 %default_split, i64 %size, i1 false)
  ret ptr %cond
}